; Function Attrs: nounwind sspstrong uwtable
define internal noundef i32 @erst_post_load(ptr noundef captures(none) %opaque, i32 %version_id) #0 {
entry:
  %_now.i.i = alloca %struct.timeval, align 8
  %storage_size.i = getelementptr inbounds nuw i8, ptr %opaque, i64 2624
  %0 = load i32, ptr %storage_size.i, align 16
  %cmp.i.not = icmp eq i32 %0, 0
  br i1 %cmp.i.not, label %if.else.i, label %get_nvram_ptr_by_index.exit

if.else.i:                                        ; preds = %entry
  tail call void @g_assertion_message_expr(ptr noundef null, ptr noundef nonnull @.str.1, i32 noundef 382, ptr noundef nonnull @__func__.get_nvram_ptr_by_index, ptr noundef nonnull @.str.28) #11
  unreachable

get_nvram_ptr_by_index.exit:                      ; preds = %entry
  %header.i = getelementptr inbounds nuw i8, ptr %opaque, i64 3216
  %hostmem_mr.i = getelementptr inbounds nuw i8, ptr %opaque, i64 2616
  %1 = load ptr, ptr %hostmem_mr.i, align 8
  %call3.i = tail call ptr @memory_region_get_ram_ptr(ptr noundef %1) #10
  store ptr %call3.i, ptr %header.i, align 16
  %record_size = getelementptr inbounds nuw i8, ptr %call3.i, i64 8
  %2 = load i32, ptr %record_size, align 1
  call void @llvm.lifetime.start.p0(i64 16, ptr nonnull %_now.i.i)
  %3 = load i32, ptr @trace_events_enabled_count, align 4
  %tobool.i.i = icmp ne i32 %3, 0
  %4 = load i16, ptr @_TRACE_ACPI_ERST_POST_LOAD_DSTATE, align 2
  %tobool4.i.i = icmp ne i16 %4, 0
  %or.cond.i.i = select i1 %tobool.i.i, i1 %tobool4.i.i, i1 false
  br i1 %or.cond.i.i, label %land.lhs.true5.i.i, label %trace_acpi_erst_post_load.exit

land.lhs.true5.i.i:                               ; preds = %get_nvram_ptr_by_index.exit
  %5 = load i32, ptr @qemu_loglevel, align 4
  %and.i.i.i = and i32 %5, 32768
  %cmp.i.not.i.i = icmp eq i32 %and.i.i.i, 0
  br i1 %cmp.i.not.i.i, label %trace_acpi_erst_post_load.exit, label %if.then.i.i

if.then.i.i:                                      ; preds = %land.lhs.true5.i.i
  %6 = load i8, ptr @message_with_timestamp, align 1
  %tobool7.i.i = trunc i8 %6 to i1
  br i1 %tobool7.i.i, label %if.then8.i.i, label %if.else.i.i

if.then8.i.i:                                     ; preds = %if.then.i.i
  %call9.i.i = call i32 @gettimeofday(ptr noundef nonnull %_now.i.i, ptr noundef null) #10
  %call10.i.i = tail call i32 @qemu_get_thread_id() #10
  %7 = load i64, ptr %_now.i.i, align 8
  %tv_usec.i.i = getelementptr inbounds nuw i8, ptr %_now.i.i, i64 8
  %8 = load i64, ptr %tv_usec.i.i, align 8
  tail call void (ptr, ...) @qemu_log(ptr noundef nonnull @.str.44, i32 noundef %call10.i.i, i64 noundef %7, i64 noundef %8, ptr noundef nonnull %call3.i, i32 noundef %2) #10
  br label %trace_acpi_erst_post_load.exit

if.else.i.i:                                      ; preds = %if.then.i.i
  tail call void (ptr, ...) @qemu_log(ptr noundef nonnull @.str.45, ptr noundef nonnull %call3.i, i32 noundef %2) #10
  br label %trace_acpi_erst_post_load.exit

trace_acpi_erst_post_load.exit:                   ; preds = %get_nvram_ptr_by_index.exit, %land.lhs.true5.i.i, %if.then8.i.i, %if.else.i.i
  call void @llvm.lifetime.end.p0(i64 16, ptr nonnull %_now.i.i)
  ret i32 0
}